target datalayout = "e-m:e-p270:32:32-p271:32:32-p272:64:64-i64:64-i128:128-f80:128-n8:16:32:64-S128"
target triple = "x86_64-pc-linux-gnu"

%struct.redisServer = type { i32, i64, ptr, ptr, ptr, i32, i32, i32, i32, i32, ptr, ptr, ptr, ptr, ptr, i32, i32, i32, i32, i64, i32, i32, i32, i32, ptr, i32, i32, [41 x i8], i32, i64, i32, i32, i32, ptr, ptr, i32, i32, i64, ptr, ptr, ptr, ptr, [2 x i32], i32, i32, i32, i32, i32, i32, [16 x ptr], i32, ptr, ptr, i32, [8 x %struct.connListener], i32, %struct.connListener, ptr, ptr, ptr, ptr, ptr, ptr, ptr, ptr, ptr, ptr, i32, ptr, i32, ptr, [3 x %struct.pause_event], [256 x i8], ptr, i64, i32, i32, [128 x i32], i32, i32, i64, i32, i32, i32, i32, i32, i64, i64, i64, i64, i64, i64, i64, i64, i64, i64, double, i64, i64, i64, i64, i64, i64, i64, i64, i64, i64, i64, i64, i64, i64, i64, i64, i64, i64, i64, i64, i64, double, i64, i64, i64, i64, i64, ptr, i64, i64, i64, %struct.malloc_stats, i64, i64, i64, i64, i64, i64, i64, i64, i64, i64, i64, i64, double, [4 x i64], i64, i64, i64, i64, [128 x i64], [128 x i64], i64, i64, [7 x %struct.anon], i64, i64, i64, i64, i64, i64, [4 x %struct.durationStats], i32, i32, i32, i32, i32, i32, i32, i32, i32, i32, i32, i32, i64, i32, i32, i32, i32, i64, i64, i32, i32, i32, i32, i32, ptr, [3 x %struct.clientBufferLimitsConfig], i32, i32, i32, ptr, i32, i32, i32, i32, i32, i32, ptr, ptr, i32, i32, i64, i64, i64, i64, i64, i32, i32, ptr, i32, i32, i64, i64, i64, i64, i64, i32, i32, i64, i32, i32, i32, i32, i32, i32, i32, i32, ptr, i32, i64, i64, i64, i64, i32, ptr, i32, ptr, i32, i32, i32, i64, i64, i64, i64, i32, i32, i32, i32, i32, i32, ptr, i32, i32, ptr, i32, i32, i32, [2 x i32], i32, %struct.redisOpArray, i32, ptr, i32, ptr, i32, i32, i32, i32, i32, i32, i32, [41 x i8], [41 x i8], i64, i64, i64, i64, i32, i32, ptr, i64, i64, %struct.replDataBuf, i64, i64, i32, i32, i32, i32, i32, i32, i32, i32, i32, i64, ptr, i64, ptr, ptr, ptr, i32, i32, ptr, ptr, i32, i32, i32, i64, i64, i64, i64, ptr, ptr, i32, ptr, i64, i32, i32, i32, i64, i32, i32, i32, i32, ptr, i32, i32, [41 x i8], i64, i32, ptr, i32, i32, i64, i64, i32, i32, i32, i32, i32, i64, [3 x i32], i32, i32, i32, [10 x i32], ptr, ptr, i32, i64, ptr, ptr, i32, i32, i32, i32, i64, i64, i64, i64, i64, i64, i64, i64, i64, i64, i32, i32, i64, i64, i32, i64, i64, i64, i64, i64, ptr, ptr, i32, ptr, i32, i32, i32, i32, i64, i64, ptr, ptr, i32, i32, i32, i32, i32, ptr, ptr, ptr, i32, i32, i32, i32, i32, i32, i32, i64, i32, i32, i64, i32, i32, i32, i32, i32, i32, i32, i64, ptr, ptr, i64, ptr, i32, %struct.aclInfo, i32, i64, i32, i32, i32, %struct.redisTLSContextConfig, ptr, ptr, ptr, ptr, ptr, i64, i32, ptr, i32, i32, i32, i64, i32, ptr }
%struct.connListener = type { [16 x i32], i32, ptr, i32, i32, ptr, ptr }
%struct.pause_event = type { i32, i64 }
%struct.malloc_stats = type { i64, i64, i64, i64, i64, i64, i64, i64, i64, i64, i64 }
%struct.anon = type { i64, i64, [16 x i64], i32 }
%struct.durationStats = type { i64, i64, i64 }
%struct.clientBufferLimitsConfig = type { i64, i64, i64 }
%struct.redisOpArray = type { ptr, i32, i32 }
%struct.replDataBuf = type { ptr, i64, i64, i64, i64 }
%struct.aclInfo = type { i64, i64, i64, i64 }
%struct.redisTLSContextConfig = type { ptr, ptr, ptr, ptr, ptr, ptr, ptr, ptr, ptr, ptr, ptr, ptr, i32, i32, i32, i32 }
%struct.redisObject = type { i32, i32, ptr }
%struct.redisDb = type { ptr, ptr, ptr, ptr, ptr, ptr, ptr, i32, i64, i64, ptr }
%struct.stream = type { ptr, i64, %struct.streamID, %struct.streamID, %struct.streamID, i64, ptr }
%struct.streamID = type { i64, i64 }

@server = external global %struct.redisServer, align 8
@.str = private unnamed_addr constant [9 x i8] c"defrag.c\00", align 1
@.str.16 = private unnamed_addr constant [62 x i8] c"ob->type == OBJ_STREAM && ob->encoding == OBJ_ENCODING_STREAM\00", align 1

; Function Attrs: nounwind uwtable
define dso_local void @defragLater(ptr noundef %0, ptr noundef %1) #0 {
  %3 = alloca ptr, align 8
  %4 = alloca ptr, align 8
  %5 = alloca ptr, align 8
  store ptr %0, ptr %3, align 8, !tbaa !108
  store ptr %1, ptr %4, align 8, !tbaa !75
  call void @llvm.lifetime.start.p0(i64 8, ptr %5) #10
  %6 = load ptr, ptr %4, align 8, !tbaa !75
  %7 = call ptr @dictGetKey(ptr noundef %6)
  %8 = call ptr @sdsdup(ptr noundef %7)
  store ptr %8, ptr %5, align 8, !tbaa !41
  %9 = load ptr, ptr %3, align 8, !tbaa !108
  %10 = getelementptr inbounds nuw %struct.redisDb, ptr %9, i32 0, i32 10
  %11 = load ptr, ptr %10, align 8, !tbaa !109
  %12 = load ptr, ptr %5, align 8, !tbaa !41
  %13 = call ptr @listAddNodeTail(ptr noundef %11, ptr noundef %12)
  call void @llvm.lifetime.end.p0(i64 8, ptr %5) #10
  ret void
}

; Function Attrs: nounwind uwtable
define dso_local ptr @activeDefragAlloc(ptr noundef %0) #0 {
  %2 = alloca ptr, align 8
  %3 = alloca ptr, align 8
  %4 = alloca i64, align 8
  %5 = alloca ptr, align 8
  %6 = alloca i32, align 4
  store ptr %0, ptr %3, align 8, !tbaa !5
  call void @llvm.lifetime.start.p0(i64 8, ptr %4) #10
  call void @llvm.lifetime.start.p0(i64 8, ptr %5) #10
  %7 = load ptr, ptr %3, align 8, !tbaa !5
  %8 = call i32 @je_get_defrag_hint(ptr noundef %7)
  %9 = icmp ne i32 %8, 0
  br i1 %9, label %13, label %10

10:                                               ; preds = %1
  %11 = load i64, ptr getelementptr inbounds nuw (%struct.redisServer, ptr @server, i32 0, i32 107), align 8, !tbaa !9
  %12 = add nsw i64 %11, 1
  store i64 %12, ptr getelementptr inbounds nuw (%struct.redisServer, ptr @server, i32 0, i32 107), align 8, !tbaa !9
  store ptr null, ptr %2, align 8
  store i32 1, ptr %6, align 4
  br label %25

13:                                               ; preds = %1
  %14 = load ptr, ptr %3, align 8, !tbaa !5
  %15 = call i64 @je_malloc_usable_size(ptr noundef %14) #10
  store i64 %15, ptr %4, align 8, !tbaa !39
  %16 = load i64, ptr %4, align 8, !tbaa !39
  %17 = call noalias ptr @zmalloc_no_tcache(i64 noundef %16)
  store ptr %17, ptr %5, align 8, !tbaa !5
  %18 = load ptr, ptr %5, align 8, !tbaa !5
  %19 = load ptr, ptr %3, align 8, !tbaa !5
  %20 = load i64, ptr %4, align 8, !tbaa !39
  call void @llvm.memcpy.p0.p0.i64(ptr align 1 %18, ptr align 1 %19, i64 %20, i1 false)
  %21 = load ptr, ptr %3, align 8, !tbaa !5
  call void @zfree_no_tcache(ptr noundef %21)
  %22 = load i64, ptr getelementptr inbounds nuw (%struct.redisServer, ptr @server, i32 0, i32 106), align 8, !tbaa !40
  %23 = add nsw i64 %22, 1
  store i64 %23, ptr getelementptr inbounds nuw (%struct.redisServer, ptr @server, i32 0, i32 106), align 8, !tbaa !40
  %24 = load ptr, ptr %5, align 8, !tbaa !5
  store ptr %24, ptr %2, align 8
  store i32 1, ptr %6, align 4
  br label %25

25:                                               ; preds = %13, %10
  call void @llvm.lifetime.end.p0(i64 8, ptr %5) #10
  call void @llvm.lifetime.end.p0(i64 8, ptr %4) #10
  %26 = load ptr, ptr %2, align 8
  ret ptr %26
}

; Function Attrs: nounwind uwtable
define dso_local void @defragStream(ptr noundef %0, ptr noundef %1) #0 {
  %3 = alloca ptr, align 8
  %4 = alloca ptr, align 8
  %5 = alloca ptr, align 8
  %6 = alloca ptr, align 8
  %7 = alloca ptr, align 8
  %8 = alloca ptr, align 8
  store ptr %0, ptr %3, align 8, !tbaa !108
  store ptr %1, ptr %4, align 8, !tbaa !75
  call void @llvm.lifetime.start.p0(i64 8, ptr %5) #10
  %9 = load ptr, ptr %4, align 8, !tbaa !75
  %10 = call ptr @dictGetVal(ptr noundef %9)
  store ptr %10, ptr %5, align 8, !tbaa !42
  %11 = load ptr, ptr %5, align 8, !tbaa !42
  %12 = load i32, ptr %11, align 8
  %13 = and i32 %12, 15
  %14 = icmp eq i32 %13, 6
  br i1 %14, label %15, label %21

15:                                               ; preds = %2
  %16 = load ptr, ptr %5, align 8, !tbaa !42
  %17 = load i32, ptr %16, align 8
  %18 = lshr i32 %17, 4
  %19 = and i32 %18, 15
  %20 = icmp eq i32 %19, 10
  br label %21

21:                                               ; preds = %15, %2
  %22 = phi i1 [ false, %2 ], [ %20, %15 ]
  %23 = xor i1 %22, true
  %24 = xor i1 %23, true
  %25 = zext i1 %24 to i32
  %26 = sext i32 %25 to i64
  %27 = call i64 @llvm.expect.i64(i64 %26, i64 1)
  %28 = icmp ne i64 %27, 0
  br i1 %28, label %29, label %30

29:                                               ; preds = %21
  br label %32

30:                                               ; preds = %21
  call void @_serverAssert(ptr noundef @.str.16, ptr noundef @.str, i32 noundef 708)
  call void @abort() #11
  unreachable

31:                                               ; No predecessors!
  br label %32

32:                                               ; preds = %31, %29
  call void @llvm.lifetime.start.p0(i64 8, ptr %6) #10
  %33 = load ptr, ptr %5, align 8, !tbaa !42
  %34 = getelementptr inbounds nuw %struct.redisObject, ptr %33, i32 0, i32 2
  %35 = load ptr, ptr %34, align 8, !tbaa !47
  store ptr %35, ptr %6, align 8, !tbaa !126
  call void @llvm.lifetime.start.p0(i64 8, ptr %7) #10
  %36 = load ptr, ptr %6, align 8, !tbaa !126
  %37 = call ptr @activeDefragAlloc(ptr noundef %36)
  store ptr %37, ptr %7, align 8, !tbaa !126
  %38 = icmp ne ptr %37, null
  br i1 %38, label %39, label %43

39:                                               ; preds = %32
  %40 = load ptr, ptr %7, align 8, !tbaa !126
  store ptr %40, ptr %6, align 8, !tbaa !126
  %41 = load ptr, ptr %5, align 8, !tbaa !42
  %42 = getelementptr inbounds nuw %struct.redisObject, ptr %41, i32 0, i32 2
  store ptr %40, ptr %42, align 8, !tbaa !47
  br label %43

43:                                               ; preds = %39, %32
  %44 = load ptr, ptr %6, align 8, !tbaa !126
  %45 = getelementptr inbounds nuw %struct.stream, ptr %44, i32 0, i32 0
  %46 = load ptr, ptr %45, align 8, !tbaa !128
  %47 = call i64 @raxSize(ptr noundef %46)
  %48 = load i64, ptr getelementptr inbounds nuw (%struct.redisServer, ptr @server, i32 0, i32 176), align 8, !tbaa !118
  %49 = icmp ugt i64 %47, %48
  br i1 %49, label %50, label %64

50:                                               ; preds = %43
  call void @llvm.lifetime.start.p0(i64 8, ptr %8) #10
  %51 = load ptr, ptr %6, align 8, !tbaa !126
  %52 = getelementptr inbounds nuw %struct.stream, ptr %51, i32 0, i32 0
  %53 = load ptr, ptr %52, align 8, !tbaa !128
  %54 = call ptr @activeDefragAlloc(ptr noundef %53)
  store ptr %54, ptr %8, align 8, !tbaa !141
  %55 = load ptr, ptr %8, align 8, !tbaa !141
  %56 = icmp ne ptr %55, null
  br i1 %56, label %57, label %61

57:                                               ; preds = %50
  %58 = load ptr, ptr %8, align 8, !tbaa !141
  %59 = load ptr, ptr %6, align 8, !tbaa !126
  %60 = getelementptr inbounds nuw %struct.stream, ptr %59, i32 0, i32 0
  store ptr %58, ptr %60, align 8, !tbaa !128
  br label %61

61:                                               ; preds = %57, %50
  %62 = load ptr, ptr %3, align 8, !tbaa !108
  %63 = load ptr, ptr %4, align 8, !tbaa !75
  call void @defragLater(ptr noundef %62, ptr noundef %63)
  call void @llvm.lifetime.end.p0(i64 8, ptr %8) #10
  br label %67

64:                                               ; preds = %43
  %65 = load ptr, ptr %6, align 8, !tbaa !126
  %66 = getelementptr inbounds nuw %struct.stream, ptr %65, i32 0, i32 0
  call void @defragRadixTree(ptr noundef %66, i32 noundef 1, ptr noundef null, ptr noundef null)
  br label %67

67:                                               ; preds = %64, %61
  %68 = load ptr, ptr %6, align 8, !tbaa !126
  %69 = getelementptr inbounds nuw %struct.stream, ptr %68, i32 0, i32 6
  %70 = load ptr, ptr %69, align 8, !tbaa !162
  %71 = icmp ne ptr %70, null
  br i1 %71, label %72, label %75

72:                                               ; preds = %67
  %73 = load ptr, ptr %6, align 8, !tbaa !126
  %74 = getelementptr inbounds nuw %struct.stream, ptr %73, i32 0, i32 6
  call void @defragRadixTree(ptr noundef %74, i32 noundef 1, ptr noundef @defragStreamConsumerGroup, ptr noundef null)
  br label %75

75:                                               ; preds = %72, %67
  call void @llvm.lifetime.end.p0(i64 8, ptr %7) #10
  call void @llvm.lifetime.end.p0(i64 8, ptr %6) #10
  call void @llvm.lifetime.end.p0(i64 8, ptr %5) #10
  ret void
}