; Function Attrs: nounwind uwtable
define dso_local void @defragStream(ptr noundef readonly captures(none) %0, ptr noundef %1) local_unnamed_addr #0 {
  %3 = tail call ptr @dictGetVal(ptr noundef %1) #10
  %4 = load i32, ptr %3, align 8
  %5 = and i32 %4, 255
  %6 = icmp eq i32 %5, 166
  br i1 %6, label %8, label %7, !prof !58

7:                                                ; preds = %2
  tail call void @_serverAssert(ptr noundef nonnull @.str.16, ptr noundef nonnull @.str, i32 noundef 708) #10
  tail call void @abort() #11
  unreachable

8:                                                ; preds = %2
  %9 = getelementptr inbounds nuw i8, ptr %3, i64 8
  %10 = load ptr, ptr %9, align 8, !tbaa !41
  %11 = tail call i32 @je_get_defrag_hint(ptr noundef %10) #10
  %.not.i = icmp eq i32 %11, 0
  br i1 %.not.i, label %activeDefragAlloc.exit.thread, label %activeDefragAlloc.exit

activeDefragAlloc.exit.thread:                    ; preds = %8
  %12 = load i64, ptr getelementptr inbounds nuw (i8, ptr @server, i64 2592), align 8, !tbaa !5
  %13 = add nsw i64 %12, 1
  store i64 %13, ptr getelementptr inbounds nuw (i8, ptr @server, i64 2592), align 8, !tbaa !5
  br label %19

activeDefragAlloc.exit:                           ; preds = %8
  %14 = tail call i64 @je_malloc_usable_size(ptr noundef %10) #10
  %15 = tail call noalias ptr @zmalloc_no_tcache(i64 noundef %14) #10
  tail call void @llvm.memcpy.p0.p0.i64(ptr align 1 %15, ptr align 1 %10, i64 %14, i1 false)
  tail call void @zfree_no_tcache(ptr noundef %10) #10
  %16 = load i64, ptr getelementptr inbounds nuw (i8, ptr @server, i64 2584), align 8, !tbaa !38
  %17 = add nsw i64 %16, 1
  store i64 %17, ptr getelementptr inbounds nuw (i8, ptr @server, i64 2584), align 8, !tbaa !38
  %.not = icmp eq ptr %15, null
  br i1 %.not, label %19, label %18

18:                                               ; preds = %activeDefragAlloc.exit
  store ptr %15, ptr %9, align 8, !tbaa !41
  br label %19

19:                                               ; preds = %activeDefragAlloc.exit.thread, %18, %activeDefragAlloc.exit
  %.0 = phi ptr [ %15, %18 ], [ %10, %activeDefragAlloc.exit ], [ %10, %activeDefragAlloc.exit.thread ]
  %20 = load ptr, ptr %.0, align 8, !tbaa !104
  %21 = tail call i64 @raxSize(ptr noundef %20) #10
  %22 = load i64, ptr getelementptr inbounds nuw (i8, ptr @server, i64 6360), align 8, !tbaa !100
  %23 = icmp ugt i64 %21, %22
  br i1 %23, label %24, label %40

24:                                               ; preds = %19
  %25 = load ptr, ptr %.0, align 8, !tbaa !104
  %26 = tail call i32 @je_get_defrag_hint(ptr noundef %25) #10
  %.not.i21 = icmp eq i32 %26, 0
  br i1 %.not.i21, label %activeDefragAlloc.exit23.thread, label %activeDefragAlloc.exit23

activeDefragAlloc.exit23.thread:                  ; preds = %24
  %27 = load i64, ptr getelementptr inbounds nuw (i8, ptr @server, i64 2592), align 8, !tbaa !5
  %28 = add nsw i64 %27, 1
  store i64 %28, ptr getelementptr inbounds nuw (i8, ptr @server, i64 2592), align 8, !tbaa !5
  br label %34

activeDefragAlloc.exit23:                         ; preds = %24
  %29 = tail call i64 @je_malloc_usable_size(ptr noundef %25) #10
  %30 = tail call noalias ptr @zmalloc_no_tcache(i64 noundef %29) #10
  tail call void @llvm.memcpy.p0.p0.i64(ptr align 1 %30, ptr align 1 %25, i64 %29, i1 false)
  tail call void @zfree_no_tcache(ptr noundef %25) #10
  %31 = load i64, ptr getelementptr inbounds nuw (i8, ptr @server, i64 2584), align 8, !tbaa !38
  %32 = add nsw i64 %31, 1
  store i64 %32, ptr getelementptr inbounds nuw (i8, ptr @server, i64 2584), align 8, !tbaa !38
  %.not19 = icmp eq ptr %30, null
  br i1 %.not19, label %34, label %33

33:                                               ; preds = %activeDefragAlloc.exit23
  store ptr %30, ptr %.0, align 8, !tbaa !104
  br label %34

34:                                               ; preds = %activeDefragAlloc.exit23.thread, %33, %activeDefragAlloc.exit23
  %35 = tail call ptr @dictGetKey(ptr noundef %1) #10
  %36 = tail call ptr @sdsdup(ptr noundef %35) #10
  %37 = getelementptr inbounds nuw i8, ptr %0, i64 80
  %38 = load ptr, ptr %37, align 8, !tbaa !90
  %39 = tail call ptr @listAddNodeTail(ptr noundef %38, ptr noundef %36) #10
  br label %41

40:                                               ; preds = %19
  tail call void @defragRadixTree(ptr noundef nonnull %.0, i32 noundef 1, ptr noundef null, ptr noundef null)
  br label %41

41:                                               ; preds = %40, %34
  %42 = getelementptr inbounds nuw i8, ptr %.0, i64 72
  %43 = load ptr, ptr %42, align 8, !tbaa !131
  %.not20 = icmp eq ptr %43, null
  br i1 %.not20, label %45, label %44

44:                                               ; preds = %41
  tail call void @defragRadixTree(ptr noundef nonnull %42, i32 noundef 1, ptr noundef nonnull @defragStreamConsumerGroup, ptr noundef null)
  br label %45

45:                                               ; preds = %44, %41
  ret void
}